TN:
SF:/home/sunny/Desktop/HPC_Project/src/common/config.cpp
FN:117,121,_ZL8get_timev
FN:123,126,_ZN5Timer5startEv
FN:128,131,_ZN5Timer4stopEv
FN:133,138,_ZNK5Timer10elapsed_msEv
FN:140,140,_ZNK5Timer9elapsed_sEv
FN:142,146,_ZN5Timer5resetEv
FN:149,164,_ZNK9PerfStats5printEv
FN:166,173,_ZN9PerfStats10accumulateERKS_
FN:7,75,_ZN9SimConfig10parse_argsEiPPc
FN:77,114,_ZNK9SimConfig5printEv
FNDA:6,_ZL8get_timev
FNDA:3,_ZN5Timer5startEv
FNDA:3,_ZN5Timer4stopEv
FNDA:3,_ZNK5Timer10elapsed_msEv
FNDA:0,_ZNK5Timer9elapsed_sEv
FNDA:0,_ZN5Timer5resetEv
FNDA:3,_ZNK9PerfStats5printEv
FNDA:0,_ZN9PerfStats10accumulateERKS_
FNDA:4,_ZN9SimConfig10parse_argsEiPPc
FNDA:3,_ZNK9SimConfig5printEv
FNF:10
FNH:7
DA:7,4
DA:8,16
DA:9,13
DA:10,3
DA:11,10
DA:12,3
DA:13,7
DA:14,0
DA:15,7
DA:16,0
DA:17,7
DA:18,0
DA:19,7
DA:20,3
DA:21,3
DA:22,2
DA:23,1
DA:24,1
DA:25,0
DA:26,0
DA:27,0
DA:28,0
DA:29,0
DA:30,0
DA:31,0
DA:32,0
DA:33,4
DA:34,3
DA:35,1
DA:36,3
DA:37,0
DA:38,3
DA:39,1
DA:40,2
DA:41,1
DA:42,1
DA:43,0
DA:44,0
DA:45,1
DA:46,0
DA:47,1
DA:48,0
DA:49,1
DA:50,0
DA:51,1
DA:71,1
DA:72,1
DA:75,3
DA:77,3
DA:79,3
DA:80,3
DA:81,3
DA:82,3
DA:84,3
DA:86,3
DA:87,2
DA:90,3
DA:91,3
DA:93,3
DA:94,2
DA:95,2
DA:96,2
DA:97,1
DA:98,1
DA:99,1
DA:100,0
DA:101,0
DA:102,0
DA:103,0
DA:104,0
DA:105,0
DA:106,0
DA:107,0
DA:108,0
DA:109,0
DA:110,0
DA:111,0
DA:113,3
DA:114,3
DA:117,6
DA:118,6
DA:119,6
DA:120,6
DA:123,3
DA:124,3
DA:125,3
DA:126,3
DA:128,3
DA:129,3
DA:130,3
DA:131,3
DA:133,3
DA:134,3
DA:135,0
DA:137,3
DA:140,0
DA:142,0
DA:143,0
DA:144,0
DA:145,0
DA:146,0
DA:149,3
DA:150,3
DA:152,3
DA:153,3
DA:154,3
DA:155,3
DA:156,0
DA:158,3
DA:159,3
DA:160,3
DA:161,0
DA:163,3
DA:164,3
DA:166,0
DA:167,0
DA:168,0
DA:169,0
DA:170,0
DA:171,0
DA:172,0
DA:173,0
LF:122
LH:76
end_of_record
TN:
SF:/home/sunny/Desktop/HPC_Project/src/common/config.h
FN:106,109,_ZN9PerfStatsC2Ev
FN:64,71,_ZN9SimConfigC2Ev
FNDA:3,_ZN9PerfStatsC2Ev
FNDA:4,_ZN9SimConfigC2Ev
FNF:2
FNH:2
DA:64,4
DA:65,4
DA:66,4
DA:67,4
DA:68,4
DA:69,4
DA:70,8
DA:71,4
DA:106,3
DA:107,3
DA:108,3
DA:109,3
LF:12
LH:12
end_of_record
TN:
SF:/home/sunny/Desktop/HPC_Project/src/common/particle.cpp
FN:19,38,_ZN11ParticleSOA10deallocateEv
FN:4,17,_ZN11ParticleSOA8allocateEi
FN:40,59,_ZN11ParticleSOA8from_aosEPK8Particlei
FN:61,75,_ZNK11ParticleSOA6to_aosEP8Particle
FNDA:0,_ZN11ParticleSOA10deallocateEv
FNDA:0,_ZN11ParticleSOA8allocateEi
FNDA:0,_ZN11ParticleSOA8from_aosEPK8Particlei
FNDA:0,_ZNK11ParticleSOA6to_aosEP8Particle
FNF:4
FNH:0
DA:4,0
DA:5,0
DA:6,0
DA:7,0
DA:8,0
DA:9,0
DA:10,0
DA:11,0
DA:12,0
DA:13,0
DA:14,0
DA:15,0
DA:16,0
DA:17,0
DA:19,0
DA:20,0
DA:21,0
DA:22,0
DA:23,0
DA:24,0
DA:25,0
DA:26,0
DA:27,0
DA:28,0
DA:29,0
DA:30,0
DA:32,0
DA:33,0
DA:34,0
DA:35,0
DA:36,0
DA:37,0
DA:38,0
DA:40,0
DA:41,0
DA:42,0
DA:43,0
DA:46,0
DA:47,0
DA:48,0
DA:49,0
DA:50,0
DA:51,0
DA:52,0
DA:53,0
DA:54,0
DA:55,0
DA:56,0
DA:57,0
DA:59,0
DA:61,0
DA:62,0
DA:63,0
DA:64,0
DA:65,0
DA:66,0
DA:67,0
DA:68,0
DA:69,0
DA:70,0
DA:71,0
DA:72,0
DA:73,0
DA:75,0
LF:64
LH:0
end_of_record
TN:
SF:/home/sunny/Desktop/HPC_Project/src/common/particle.h
FN:20,21,_ZN8ParticleC2Ev
FN:23,25,_ZN8ParticleC2ERK8Vector3DS2_di
FN:28,28,_ZN8Particle18reset_accelerationEv
FN:31,33,_ZNK8Particle14kinetic_energyEv
FNDA:3000,_ZN8ParticleC2Ev
FNDA:3000,_ZN8ParticleC2ERK8Vector3DS2_di
FNDA:33000,_ZN8Particle18reset_accelerationEv
FNDA:4000,_ZNK8Particle14kinetic_energyEv
FNF:4
FNH:4
DA:20,3000
DA:21,3000
DA:23,3000
DA:25,3000
DA:28,33000
DA:31,4000
DA:32,4000
LF:7
LH:7
end_of_record
TN:
SF:/home/sunny/Desktop/HPC_Project/src/common/vector3d.h
FN:16,16,_ZN8Vector3DC2Ev
FN:17,17,_ZN8Vector3DC2Eddd
FN:20,22,_ZNK8Vector3DplERKS_
FN:25,27,_ZNK8Vector3DmiERKS_
FN:30,32,_ZNK8Vector3DmlEd
FN:40,43,_ZN8Vector3DpLERKS_
FN:45,48,_ZN8Vector3DmIERKS_
FN:55,58,_ZN8Vector3DdVEd
FN:75,77,_ZNK8Vector3D12magnitude_sqEv
FN:80,82,_ZNK8Vector3D9magnitudeEv
FNDA:234594,_ZN8Vector3DC2Ev
FNDA:54733647,_ZN8Vector3DC2Eddd
FNDA:89266,_ZNK8Vector3DplERKS_
FNDA:30188535,_ZNK8Vector3DmiERKS_
FNDA:24449780,_ZNK8Vector3DmlEd
FNDA:18866036,_ZN8Vector3DpLERKS_
FNDA:5494500,_ZN8Vector3DmIERKS_
FNDA:11150,_ZN8Vector3DdVEd
FNDA:30192513,_ZNK8Vector3D12magnitude_sqEv
FNDA:89222,_ZNK8Vector3D9magnitudeEv
FNF:10
FNH:10
DA:16,234594
DA:17,54733647
DA:20,89266
DA:21,89266
DA:25,30188535
DA:26,30188535
DA:30,24449780
DA:31,24449780
DA:40,18866036
DA:41,18866036
DA:42,18866036
DA:45,5494500
DA:46,5494500
DA:47,5494500
DA:55,11150
DA:56,11150
DA:57,11150
DA:75,30192513
DA:76,30192513
DA:80,89222
DA:81,89222
LF:21
LH:21
end_of_record
TN:
SF:/home/sunny/Desktop/HPC_Project/src/main.cpp
FN:150,227,_Z10run_openmpR9SimConfig
FN:319,376,main
FN:40,48,_Z16output_particlesRKSt6vectorI8ParticleSaIS0_EERKNSt7__cxx1112basic_stringIcSt11char_traitsIcESaIcEEEi
FN:51,55,_Z18generate_particlesRK9SimConfig
FN:58,146,_Z10run_serialR9SimConfig
FNDA:1,_Z10run_openmpR9SimConfig
FNDA:4,main
FNDA:0,_Z16output_particlesRKSt6vectorI8ParticleSaIS0_EERKNSt7__cxx1112basic_stringIcSt11char_traitsIcESaIcEEEi
FNDA:3,_Z18generate_particlesRK9SimConfig
FNDA:2,_Z10run_serialR9SimConfig
FNF:5
FNH:4
DA:40,0
DA:42,0
DA:43,0
DA:44,0
DA:45,0
DA:47,0
DA:48,0
DA:51,3
DA:52,3
DA:53,3
DA:54,3
DA:58,2
DA:59,2
DA:61,2
DA:64,2
DA:66,2
DA:68,2
DA:70,1
DA:73,1
DA:74,1
DA:76,1
DA:77,1
DA:78,1
DA:81,1
DA:83,11
DA:84,10
DA:86,10
DA:87,0
DA:90,10
DA:91,1
DA:95,1
DA:96,1
DA:97,1
DA:99,1
DA:100,1
DA:101,1
DA:102,1
DA:103,1
DA:104,1
DA:106,1
DA:107,1
DA:109,1
DA:111,1
DA:112,1
DA:113,1
DA:116,1
DA:118,11
DA:119,10
DA:121,10
DA:122,0
DA:125,10
DA:126,1
DA:130,1
DA:131,1
DA:132,1
DA:134,1
DA:135,1
DA:136,1
DA:137,1
DA:138,1
DA:139,1
DA:143,2
DA:144,2
DA:145,2
DA:146,2
DA:150,1
DA:151,1
DA:152,1
DA:154,1
DA:157,1
DA:164,1
DA:166,1
DA:167,1
DA:169,1
DA:170,1
DA:172,1
DA:178,11
DA:179,10
DA:181,10
DA:182,1
DA:190,1
DA:191,1
DA:192,1
DA:193,0
DA:194,0
DA:196,0
DA:198,0
DA:204,0
DA:205,0
DA:207,0
DA:208,0
DA:216,0
DA:217,0
DA:224,1
DA:225,1
DA:226,1
DA:227,1
DA:319,4
DA:320,4
DA:321,4
DA:333,3
DA:334,3
DA:337,3
DA:338,2
DA:339,2
DA:340,2
DA:343,1
DA:344,1
DA:345,1
DA:360,0
DA:361,0
DA:362,0
DA:364,0
DA:375,3
DA:376,3
LF:115
LH:92
end_of_record
TN:
SF:/home/sunny/Desktop/HPC_Project/src/openmp/barnes_hut_omp.cpp
FN:11,14,_ZN12BarnesHutOMP15set_num_threadsEi
FN:116,118,_ZN12BarnesHutOMP4stepERSt6vectorI8ParticleSaIS1_EEd
FN:120,131,_ZNK12BarnesHutOMP22compute_kinetic_energyERKSt6vectorI8ParticleSaIS1_EE
FN:133,180,_ZN12BarnesHutOMP20compute_total_energyERSt6vectorI8ParticleSaIS1_EE
FN:145,171,_ZZN12BarnesHutOMP20compute_total_energyERSt6vectorI8ParticleSaIS1_EEENKUlRKS1_PK10OctreeNodeE_clES6_S9_
FN:16,20,_ZN12BarnesHutOMP10build_treeERKSt6vectorI8ParticleSaIS1_EE
FN:22,63,_ZN12BarnesHutOMP25compute_force_on_particleER8ParticlePK10OctreeNodeRx
FN:6,9,_ZN12BarnesHutOMPC2Eddd
FN:65,90,_ZN12BarnesHutOMP14compute_forcesERSt6vectorI8ParticleSaIS1_EE
FN:92,114,_ZN12BarnesHutOMP9integrateERSt6vectorI8ParticleSaIS1_EEd
FNDA:1,_ZN12BarnesHutOMP15set_num_threadsEi
FNDA:10,_ZN12BarnesHutOMP4stepERSt6vectorI8ParticleSaIS1_EEd
FNDA:0,_ZNK12BarnesHutOMP22compute_kinetic_energyERKSt6vectorI8ParticleSaIS1_EE
FNDA:0,_ZN12BarnesHutOMP20compute_total_energyERSt6vectorI8ParticleSaIS1_EE
FNDA:0,_ZZN12BarnesHutOMP20compute_total_energyERSt6vectorI8ParticleSaIS1_EEENKUlRKS1_PK10OctreeNodeE_clES6_S9_
FNDA:11,_ZN12BarnesHutOMP10build_treeERKSt6vectorI8ParticleSaIS1_EE
FNDA:20700160,_ZN12BarnesHutOMP25compute_force_on_particleER8ParticlePK10OctreeNodeRx
FNDA:1,_ZN12BarnesHutOMPC2Eddd
FNDA:11,_ZN12BarnesHutOMP14compute_forcesERSt6vectorI8ParticleSaIS1_EE
FNDA:10,_ZN12BarnesHutOMP9integrateERSt6vectorI8ParticleSaIS1_EEd
FNF:10
FNH:7
DA:6,1
DA:7,1
DA:8,2
DA:9,1
DA:11,1
DA:12,1
DA:13,1
DA:14,1
DA:16,11
DA:19,11
DA:20,11
DA:22,20700160
DA:25,20700160
DA:26,11478811
DA:29,9221349
DA:30,5026153
DA:31,5026153
DA:32,11000
DA:35,5015153
DA:36,5015153
DA:37,5015153
DA:38,5015153
DA:40,5015153
DA:41,5015153
DA:43,5015153
DA:44,5015153
DA:48,4195196
DA:49,1609051
DA:50,1609051
DA:51,1609051
DA:52,1609051
DA:54,1609051
DA:55,1609051
DA:57,1609051
DA:59,23275305
DA:60,20689160
DA:65,11
DA:66,11
DA:67,11
DA:70,11
DA:77,11
DA:89,11
DA:90,11
DA:92,10
DA:93,10
DA:94,10
DA:97,10
DA:104,10
DA:107,10
DA:110,10
DA:114,10
DA:116,10
DA:117,10
DA:118,10
DA:120,0
DA:122,0
DA:123,0
DA:125,0
DA:130,0
DA:133,0
DA:135,0
DA:136,0
DA:138,0
DA:139,0
DA:142,0
DA:145,0
DA:146,0
DA:147,0
DA:150,0
DA:151,0
DA:152,0
DA:153,0
DA:155,0
DA:156,0
DA:157,0
DA:160,0
DA:161,0
DA:162,0
DA:163,0
DA:166,0
DA:167,0
DA:168,0
DA:170,0
DA:179,0
LF:84
LH:54
end_of_record
TN:
SF:/home/sunny/Desktop/HPC_Project/src/openmp/barnes_hut_omp.h
FN:37,37,_ZNK12BarnesHutOMP21get_interaction_countEv
FNDA:1,_ZNK12BarnesHutOMP21get_interaction_countEv
FNF:1
FNH:1
DA:37,1
LF:1
LH:1
end_of_record
TN:
SF:/home/sunny/Desktop/HPC_Project/src/openmp/direct_omp.cpp
FN:104,119,_ZNK14DirectNBodyOMP24compute_potential_energyERKSt6vectorI8ParticleSaIS1_EE
FN:121,125,_ZNK14DirectNBodyOMP20compute_total_energyERKSt6vectorI8ParticleSaIS1_EE
FN:14,64,_ZN14DirectNBodyOMP14compute_forcesERSt6vectorI8ParticleSaIS1_EE
FN:5,7,_ZN14DirectNBodyOMPC2Edd
FN:66,85,_ZN14DirectNBodyOMP9integrateERSt6vectorI8ParticleSaIS1_EEd
FN:87,89,_ZN14DirectNBodyOMP4stepERSt6vectorI8ParticleSaIS1_EEd
FN:9,12,_ZN14DirectNBodyOMP15set_num_threadsEi
FN:91,102,_ZNK14DirectNBodyOMP22compute_kinetic_energyERKSt6vectorI8ParticleSaIS1_EE
FNDA:0,_ZNK14DirectNBodyOMP24compute_potential_energyERKSt6vectorI8ParticleSaIS1_EE
FNDA:0,_ZNK14DirectNBodyOMP20compute_total_energyERKSt6vectorI8ParticleSaIS1_EE
FNDA:0,_ZN14DirectNBodyOMP14compute_forcesERSt6vectorI8ParticleSaIS1_EE
FNDA:0,_ZN14DirectNBodyOMPC2Edd
FNDA:0,_ZN14DirectNBodyOMP9integrateERSt6vectorI8ParticleSaIS1_EEd
FNDA:0,_ZN14DirectNBodyOMP4stepERSt6vectorI8ParticleSaIS1_EEd
FNDA:0,_ZN14DirectNBodyOMP15set_num_threadsEi
FNDA:0,_ZNK14DirectNBodyOMP22compute_kinetic_energyERKSt6vectorI8ParticleSaIS1_EE
FNF:8
FNH:0
DA:5,0
DA:6,0
DA:7,0
DA:9,0
DA:10,0
DA:11,0
DA:12,0
DA:14,0
DA:15,0
DA:16,0
DA:19,0
DA:26,0
DA:28,0
DA:63,0
DA:64,0
DA:66,0
DA:67,0
DA:68,0
DA:71,0
DA:78,0
DA:81,0
DA:85,0
DA:87,0
DA:88,0
DA:89,0
DA:91,0
DA:93,0
DA:94,0
DA:96,0
DA:101,0
DA:104,0
DA:106,0
DA:107,0
DA:109,0
DA:118,0
DA:121,0
DA:123,0
DA:124,0
LF:38
LH:0
end_of_record
TN:
SF:/home/sunny/Desktop/HPC_Project/src/openmp/direct_omp.h
FN:33,33,_ZNK14DirectNBodyOMP21get_interaction_countEv
FNDA:0,_ZNK14DirectNBodyOMP21get_interaction_countEv
FNF:1
FNH:0
DA:33,0
LF:1
LH:0
end_of_record
TN:
SF:/home/sunny/Desktop/HPC_Project/src/serial/barnes_hut.cpp
FN:100,107,_ZNK15BarnesHutSolver22compute_kinetic_energyERKSt6vectorI8ParticleSaIS1_EE
FN:109,155,_ZN15BarnesHutSolver24compute_potential_energyERKSt6vectorI8ParticleSaIS1_EE
FN:122,148,_ZZN15BarnesHutSolver24compute_potential_energyERKSt6vectorI8ParticleSaIS1_EEENKUlPK10OctreeNodeE_clES8_
FN:13,56,_ZN15BarnesHutSolver25compute_force_on_particleER8ParticlePK10OctreeNode
FN:158,161,_ZN15BarnesHutSolver20compute_total_energyERKSt6vectorI8ParticleSaIS1_EE
FN:5,7,_ZN15BarnesHutSolverC2Eddd
FN:58,70,_ZN15BarnesHutSolver14compute_forcesERSt6vectorI8ParticleSaIS1_EE
FN:72,94,_ZN15BarnesHutSolver9integrateERSt6vectorI8ParticleSaIS1_EEd
FN:9,11,_ZN15BarnesHutSolver10build_treeERKSt6vectorI8ParticleSaIS1_EE
FN:96,98,_ZN15BarnesHutSolver4stepERSt6vectorI8ParticleSaIS1_EEd
FNDA:2,_ZNK15BarnesHutSolver22compute_kinetic_energyERKSt6vectorI8ParticleSaIS1_EE
FNDA:2,_ZN15BarnesHutSolver24compute_potential_energyERKSt6vectorI8ParticleSaIS1_EE
FNDA:3762280,_ZZN15BarnesHutSolver24compute_potential_energyERKSt6vectorI8ParticleSaIS1_EEENKUlPK10OctreeNodeE_clES8_
FNDA:20700160,_ZN15BarnesHutSolver25compute_force_on_particleER8ParticlePK10OctreeNode
FNDA:2,_ZN15BarnesHutSolver20compute_total_energyERKSt6vectorI8ParticleSaIS1_EE
FNDA:1,_ZN15BarnesHutSolverC2Eddd
FNDA:11,_ZN15BarnesHutSolver14compute_forcesERSt6vectorI8ParticleSaIS1_EE
FNDA:10,_ZN15BarnesHutSolver9integrateERSt6vectorI8ParticleSaIS1_EEd
FNDA:11,_ZN15BarnesHutSolver10build_treeERKSt6vectorI8ParticleSaIS1_EE
FNDA:10,_ZN15BarnesHutSolver4stepERSt6vectorI8ParticleSaIS1_EEd
FNF:10
FNH:10
DA:5,1
DA:6,1
DA:7,1
DA:9,11
DA:10,11
DA:11,11
DA:13,20700160
DA:15,20700160
DA:16,11478811
DA:19,9221349
DA:21,5026153
DA:22,5026153
DA:23,11000
DA:26,5015153
DA:27,5015153
DA:28,5015153
DA:29,5015153
DA:31,5015153
DA:32,5015153
DA:34,5015153
DA:35,5015153
DA:39,4195196
DA:41,1609051
DA:42,1609051
DA:43,1609051
DA:44,1609051
DA:46,1609051
DA:47,1609051
DA:49,1609051
DA:52,23275305
DA:53,20689160
DA:58,11
DA:59,11
DA:62,11011
DA:63,11000
DA:67,11011
DA:68,11000
DA:70,11
DA:72,10
DA:74,10
DA:76,10010
DA:78,10000
DA:81,10000
DA:85,10
DA:88,10
DA:90,10010
DA:92,10000
DA:94,10
DA:96,10
DA:97,10
DA:98,10
DA:100,2
DA:102,2
DA:103,2002
DA:104,2000
DA:106,2
DA:109,2
DA:112,2
DA:115,2
DA:116,0
DA:120,2002
DA:122,0
DA:123,3762280
DA:124,2085368
DA:127,1676912
DA:128,914798
DA:129,914798
DA:130,2000
DA:132,912798
DA:133,912798
DA:134,912798
DA:137,762114
DA:138,292079
DA:139,292079
DA:140,292079
DA:143,470035
DA:144,4230315
DA:145,3760280
DA:147,470035
DA:148,2000
DA:150,2000
DA:151,2000
DA:154,2
DA:158,2
DA:159,2
DA:160,2
LF:86
LH:84
end_of_record
TN:
SF:/home/sunny/Desktop/HPC_Project/src/serial/barnes_hut.h
FN:40,40,_ZNK15BarnesHutSolver21get_interaction_countEv
FNDA:1,_ZNK15BarnesHutSolver21get_interaction_countEv
FNF:1
FNH:1
DA:40,1
LF:1
LH:1
end_of_record
TN:
SF:/home/sunny/Desktop/HPC_Project/src/serial/direct_nbody.cpp
FN:116,125,_ZNK11DirectNBody22compute_total_momentumERKSt6vectorI8ParticleSaIS1_EE
FN:4,6,_ZN11DirectNBodyC2Edd
FN:41,62,_ZN11DirectNBody9integrateERSt6vectorI8ParticleSaIS1_EEd
FN:64,66,_ZN11DirectNBody4stepERSt6vectorI8ParticleSaIS1_EEd
FN:68,75,_ZNK11DirectNBody22compute_kinetic_energyERKSt6vectorI8ParticleSaIS1_EE
FN:77,91,_ZNK11DirectNBody24compute_potential_energyERKSt6vectorI8ParticleSaIS1_EE
FN:8,39,_ZN11DirectNBody14compute_forcesERSt6vectorI8ParticleSaIS1_EE
FN:93,97,_ZNK11DirectNBody20compute_total_energyERKSt6vectorI8ParticleSaIS1_EE
FN:99,114,_ZNK11DirectNBody22compute_center_of_massERKSt6vectorI8ParticleSaIS1_EE
FNDA:0,_ZNK11DirectNBody22compute_total_momentumERKSt6vectorI8ParticleSaIS1_EE
FNDA:1,_ZN11DirectNBodyC2Edd
FNDA:10,_ZN11DirectNBody9integrateERSt6vectorI8ParticleSaIS1_EEd
FNDA:10,_ZN11DirectNBody4stepERSt6vectorI8ParticleSaIS1_EEd
FNDA:2,_ZNK11DirectNBody22compute_kinetic_energyERKSt6vectorI8ParticleSaIS1_EE
FNDA:2,_ZNK11DirectNBody24compute_potential_energyERKSt6vectorI8ParticleSaIS1_EE
FNDA:11,_ZN11DirectNBody14compute_forcesERSt6vectorI8ParticleSaIS1_EE
FNDA:2,_ZNK11DirectNBody20compute_total_energyERKSt6vectorI8ParticleSaIS1_EE
FNDA:0,_ZNK11DirectNBody22compute_center_of_massERKSt6vectorI8ParticleSaIS1_EE
FNF:9
FNH:7
DA:4,1
DA:5,1
DA:6,1
DA:8,11
DA:9,11
DA:10,11
DA:13,11011
DA:14,11000
DA:18,11011
DA:19,5505500
DA:21,5494500
DA:22,5494500
DA:23,5494500
DA:24,5494500
DA:28,5494500
DA:30,5494500
DA:31,5494500
DA:33,5494500
DA:34,5494500
DA:36,5494500
DA:39,11
DA:41,10
DA:45,10
DA:47,10010
DA:49,10000
DA:52,10000
DA:56,10
DA:58,10010
DA:60,10000
DA:62,10
DA:64,10
DA:65,10
DA:66,10
DA:68,2
DA:70,2
DA:71,2002
DA:72,2000
DA:74,2
DA:77,2
DA:79,2
DA:80,2
DA:82,2002
DA:83,1001000
DA:84,999000
DA:85,999000
DA:86,999000
DA:90,2
DA:93,2
DA:95,2
DA:96,2
DA:99,0
DA:101,0
DA:102,0
DA:104,0
DA:105,0
DA:106,0
DA:109,0
DA:110,0
DA:113,0
DA:116,0
DA:118,0
DA:120,0
DA:121,0
DA:124,0
LF:64
LH:50
end_of_record
TN:
SF:/home/sunny/Desktop/HPC_Project/src/serial/direct_nbody.h
FN:39,39,_ZNK11DirectNBody21get_interaction_countEv
FNDA:1,_ZNK11DirectNBody21get_interaction_countEv
FNF:1
FNH:1
DA:39,1
LF:1
LH:1
end_of_record
TN:
SF:/home/sunny/Desktop/HPC_Project/src/serial/generators.cpp
FN:107,131,_Z18generate_collisionidddj
FN:133,180,_Z16generate_plummeriddj
FN:23,56,_Z26generate_gaussian_clustersiidddj
FN:5,21,_Z16generate_uniformiddj
FN:58,105,_Z15generate_galaxyidddj
FNDA:0,_Z18generate_collisionidddj
FNDA:3,_Z16generate_plummeriddj
FNDA:0,_Z26generate_gaussian_clustersiidddj
FNDA:0,_Z16generate_uniformiddj
FNDA:0,_Z15generate_galaxyidddj
FNF:5
FNH:1
DA:5,0
DA:7,0
DA:8,0
DA:9,0
DA:10,0
DA:12,0
DA:14,0
DA:15,0
DA:16,0
DA:17,0
DA:20,0
DA:21,0
DA:23,0
DA:28,0
DA:29,0
DA:31,0
DA:32,0
DA:33,0
DA:35,0
DA:36,0
DA:38,0
DA:39,0
DA:40,0
DA:43,0
DA:44,0
DA:45,0
DA:46,0
DA:48,0
DA:49,0
DA:50,0
DA:52,0
DA:55,0
DA:56,0
DA:58,0
DA:60,0
DA:61,0
DA:62,0
DA:63,0
DA:64,0
DA:65,0
DA:67,0
DA:70,0
DA:71,0
DA:73,0
DA:74,0
DA:75,0
DA:76,0
DA:80,0
DA:81,0
DA:82,0
DA:83,0
DA:84,0
DA:86,0
DA:87,0
DA:89,0
DA:90,0
DA:91,0
DA:93,0
DA:95,0
DA:96,0
DA:97,0
DA:98,0
DA:100,0
DA:101,0
DA:104,0
DA:105,0
DA:107,0
DA:110,0
DA:112,0
DA:114,0
DA:116,0
DA:117,0
DA:119,0
DA:120,0
DA:121,0
DA:122,0
DA:125,0
DA:126,0
DA:127,0
DA:128,0
DA:130,0
DA:131,0
DA:133,3
DA:135,6
DA:136,3
DA:137,3
DA:139,3
DA:141,3003
DA:142,3000
DA:143,3000
DA:144,3000
DA:146,3000
DA:147,3000
DA:148,3000
DA:150,3000
DA:151,3000
DA:152,3000
DA:154,3000
DA:157,3000
DA:161,6840
DA:162,6840
DA:163,6840
DA:165,3000
DA:167,3000
DA:168,3000
DA:169,3000
DA:171,3000
DA:172,3000
DA:173,3000
DA:175,3000
DA:176,3000
DA:179,6
DA:180,0
LF:113
LH:30
end_of_record
TN:
SF:/home/sunny/Desktop/HPC_Project/src/serial/octree.cpp
FN:113,142,_ZN10OctreeNode25compute_mass_distributionEv
FN:14,17,_ZNK11BoundingBox8containsERK8Vector3D
FN:144,153,_ZNK10OctreeNode15can_approximateERK8Vector3Dd
FN:156,156,_ZN6OctreeC2Ed
FN:159,190,_ZNK6Octree20compute_bounding_boxERKSt6vectorI8ParticleSaIS1_EE
FN:19,28,_ZNK11BoundingBox10get_octantERK8Vector3D
FN:192,203,_ZN6Octree5buildERKSt6vectorI8ParticleSaIS1_EE
FN:205,205,_ZN6Octree5clearEv
FN:207,226,_ZNK6Octree14get_node_countEv
FN:212,223,_ZZNK6Octree14get_node_countEvENKUlPK10OctreeNodeE_clES2_
FN:228,245,_ZNK6Octree13get_max_depthEv
FN:233,242,_ZZNK6Octree13get_max_depthEvENKUlPK10OctreeNodeiE_clES2_i
FN:30,48,_ZNK11BoundingBox13get_child_boxEi
FN:51,57,_ZN10OctreeNodeC2ERK11BoundingBox
FN:59,64,_ZN10OctreeNode9subdivideEv
FN:66,111,_ZN10OctreeNode6insertERK8Particlei
FN:8,12,_ZN11BoundingBoxC2ERK8Vector3DS2_
FNDA:33150,_ZN10OctreeNode25compute_mass_distributionEv
FNDA:0,_ZNK11BoundingBox8containsERK8Vector3D
FNDA:9152506,_ZNK10OctreeNode15can_approximateERK8Vector3Dd
FNDA:2,_ZN6OctreeC2Ed
FNDA:22,_ZNK6Octree20compute_bounding_boxERKSt6vectorI8ParticleSaIS1_EE
FNDA:196452,_ZNK11BoundingBox10get_octantERK8Vector3D
FNDA:22,_ZN6Octree5buildERKSt6vectorI8ParticleSaIS1_EE
FNDA:22,_ZN6Octree5clearEv
FNDA:0,_ZNK6Octree14get_node_countEv
FNDA:0,_ZZNK6Octree14get_node_countEvENKUlPK10OctreeNodeE_clES2_
FNDA:0,_ZNK6Octree13get_max_depthEv
FNDA:0,_ZZNK6Octree13get_max_depthEvENKUlPK10OctreeNodeiE_clES2_i
FNDA:89200,_ZNK11BoundingBox13get_child_boxEi
FNDA:89222,_ZN10OctreeNodeC2ERK11BoundingBox
FNDA:11150,_ZN10OctreeNode9subdivideEv
FNDA:218452,_ZN10OctreeNode6insertERK8Particlei
FNDA:89222,_ZN11BoundingBoxC2ERK8Vector3DS2_
FNF:17
FNH:12
DA:8,89222
DA:9,89222
DA:10,89222
DA:11,89222
DA:12,89222
DA:14,0
DA:15,0
DA:16,0
DA:19,196452
DA:20,196452
DA:21,196452
DA:22,81704
DA:23,196452
DA:24,128208
DA:25,196452
DA:26,127264
DA:27,196452
DA:30,89200
DA:31,89200
DA:32,89200
DA:34,89200
DA:35,44600
DA:36,44600
DA:38,89200
DA:39,44600
DA:40,44600
DA:42,89200
DA:43,44600
DA:44,44600
DA:47,89200
DA:51,89222
DA:52,267666
DA:53,89222
DA:54,802998
DA:55,713776
DA:57,89222
DA:59,11150
DA:60,100350
DA:61,89200
DA:62,89200
DA:64,11150
DA:66,218452
DA:67,218452
DA:69,0
DA:70,0
DA:71,0
DA:73,0
DA:74,0
DA:77,218452
DA:78,33150
DA:80,33150
DA:81,33150
DA:82,33150
DA:83,33150
DA:85,11150
DA:87,11150
DA:88,11150
DA:89,11150
DA:90,11150
DA:93,11150
DA:94,11150
DA:97,11150
DA:98,11150
DA:99,11150
DA:100,11150
DA:103,174152
DA:105,174152
DA:106,174152
DA:107,174152
DA:108,174152
DA:113,33150
DA:114,33150
DA:115,0
DA:116,0
DA:117,0
DA:118,0
DA:120,22000
DA:121,22000
DA:122,22000
DA:123,22000
DA:125,11150
DA:126,11150
DA:127,11150
DA:129,100350
DA:130,89200
DA:131,33128
DA:132,33128
DA:133,33128
DA:137,11150
DA:138,11150
DA:140,11150
DA:142,33150
DA:144,9152506
DA:149,9152506
DA:150,9152506
DA:152,9152506
DA:156,2
DA:159,22
DA:160,22
DA:161,0
DA:162,0
DA:167,22
DA:170,22
DA:172,22022
DA:173,22000
DA:174,22000
DA:175,22000
DA:176,22000
DA:177,22000
DA:178,22000
DA:182,0
DA:183,22
DA:184,22
DA:186,22
DA:187,22
DA:189,22
DA:192,22
DA:193,22
DA:195,22
DA:196,22
DA:198,22022
DA:199,22000
DA:202,22
DA:203,22
DA:205,22
DA:207,0
DA:208,0
DA:209,0
DA:212,0
DA:213,0
DA:214,0
DA:216,0
DA:217,0
DA:218,0
DA:219,0
DA:222,0
DA:223,0
DA:225,0
DA:226,0
DA:228,0
DA:229,0
DA:230,0
DA:233,0
DA:234,0
DA:235,0
DA:237,0
DA:238,0
DA:239,0
DA:241,0
DA:242,0
DA:244,0
DA:245,0
LF:152
LH:110
end_of_record
TN:
SF:/home/sunny/Desktop/HPC_Project/src/serial/octree.h
FN:41,41,_ZN10OctreeNodeD2Ev
FN:53,53,_ZNK10OctreeNode8get_typeEv
FN:55,55,_ZNK10OctreeNode18get_center_of_massEv
FN:56,56,_ZNK10OctreeNode14get_total_massEv
FN:57,57,_ZNK10OctreeNode12get_particleEv
FN:58,58,_ZNK10OctreeNode9get_childEi
FN:92,92,_ZNK6Octree8get_rootEv
FNDA:89222,_ZN10OctreeNodeD2Ev
FNDA:65282210,_ZNK10OctreeNode8get_typeEv
FNDA:3510181,_ZNK10OctreeNode18get_center_of_massEv
FNDA:3510181,_ZNK10OctreeNode14get_total_massEv
FNDA:10967104,_ZNK10OctreeNode12get_particleEv
FNDA:45138600,_ZNK10OctreeNode9get_childEi
FNDA:24002,_ZNK6Octree8get_rootEv
FNF:7
FNH:7
DA:41,89222
DA:53,65282210
DA:55,3510181
DA:56,3510181
DA:57,10967104
DA:58,45138600
DA:92,24002
LF:7
LH:7
end_of_record
